target datalayout = "e-m:e-p270:32:32-p271:32:32-p272:64:64-i64:64-i128:128-f80:128-n8:16:32:64-S128"
target triple = "x86_64-pc-linux-gnu"

%struct._sccp_user_t = type { i32, ptr, ptr, i32, i8, ptr }

; Function Attrs: null_pointer_is_valid sspstrong uwtable
define internal ptr @sccp_users_copy_cb(ptr noundef %0, ptr noundef %1, i64 noundef %2) #0 {
  %4 = alloca ptr, align 8
  %5 = alloca ptr, align 8
  %6 = alloca i64, align 8
  %7 = alloca ptr, align 8
  %8 = alloca ptr, align 8
  store ptr %0, ptr %4, align 8
  store ptr %1, ptr %5, align 8
  store i64 %2, ptr %6, align 8
  call void @llvm.lifetime.start.p0(i64 8, ptr %7) #10
  %9 = load ptr, ptr %5, align 8
  store ptr %9, ptr %7, align 8
  call void @llvm.lifetime.start.p0(i64 8, ptr %8) #10
  %10 = load ptr, ptr %4, align 8
  store ptr %10, ptr %8, align 8
  %11 = load ptr, ptr %7, align 8
  %12 = getelementptr inbounds nuw %struct._sccp_user_t, ptr %11, i32 0, i32 0
  %13 = load i32, ptr %12, align 8
  %14 = load ptr, ptr %8, align 8
  %15 = getelementptr inbounds nuw %struct._sccp_user_t, ptr %14, i32 0, i32 0
  store i32 %13, ptr %15, align 8
  %16 = load ptr, ptr %7, align 8
  %17 = getelementptr inbounds nuw %struct._sccp_user_t, ptr %16, i32 0, i32 3
  %18 = load i32, ptr %17, align 8
  %19 = load ptr, ptr %8, align 8
  %20 = getelementptr inbounds nuw %struct._sccp_user_t, ptr %19, i32 0, i32 3
  store i32 %18, ptr %20, align 8
  %21 = load ptr, ptr %7, align 8
  %22 = getelementptr inbounds nuw %struct._sccp_user_t, ptr %21, i32 0, i32 4
  %23 = load i8, ptr %22, align 4, !range !6, !noundef !7
  %24 = trunc i8 %23 to i1
  %25 = load ptr, ptr %8, align 8
  %26 = getelementptr inbounds nuw %struct._sccp_user_t, ptr %25, i32 0, i32 4
  %27 = zext i1 %24 to i8
  store i8 %27, ptr %26, align 4
  %28 = load ptr, ptr %7, align 8
  %29 = getelementptr inbounds nuw %struct._sccp_user_t, ptr %28, i32 0, i32 5
  %30 = load ptr, ptr %29, align 8
  %31 = load ptr, ptr %8, align 8
  %32 = getelementptr inbounds nuw %struct._sccp_user_t, ptr %31, i32 0, i32 5
  store ptr %30, ptr %32, align 8
  %33 = load ptr, ptr %7, align 8
  %34 = getelementptr inbounds nuw %struct._sccp_user_t, ptr %33, i32 0, i32 1
  %35 = load ptr, ptr %34, align 8
  %36 = icmp ne ptr %35, null
  br i1 %36, label %37, label %44

37:                                               ; preds = %3
  %38 = load ptr, ptr %7, align 8
  %39 = getelementptr inbounds nuw %struct._sccp_user_t, ptr %38, i32 0, i32 1
  %40 = load ptr, ptr %39, align 8
  %41 = call ptr @range_copy(ptr noundef null, ptr noundef %40)
  %42 = load ptr, ptr %8, align 8
  %43 = getelementptr inbounds nuw %struct._sccp_user_t, ptr %42, i32 0, i32 1
  store ptr %41, ptr %43, align 8
  br label %44

44:                                               ; preds = %37, %3
  %45 = load ptr, ptr %7, align 8
  %46 = getelementptr inbounds nuw %struct._sccp_user_t, ptr %45, i32 0, i32 2
  %47 = load ptr, ptr %46, align 8
  %48 = icmp ne ptr %47, null
  br i1 %48, label %49, label %56

49:                                               ; preds = %44
  %50 = load ptr, ptr %7, align 8
  %51 = getelementptr inbounds nuw %struct._sccp_user_t, ptr %50, i32 0, i32 2
  %52 = load ptr, ptr %51, align 8
  %53 = call ptr @range_copy(ptr noundef null, ptr noundef %52)
  %54 = load ptr, ptr %8, align 8
  %55 = getelementptr inbounds nuw %struct._sccp_user_t, ptr %54, i32 0, i32 2
  store ptr %53, ptr %55, align 8
  br label %56

56:                                               ; preds = %49, %44
  %57 = load ptr, ptr %4, align 8
  call void @llvm.lifetime.end.p0(i64 8, ptr %8) #10
  call void @llvm.lifetime.end.p0(i64 8, ptr %7) #10
  ret ptr %57
}