; Function Attrs: null_pointer_is_valid sspstrong uwtable
define internal noundef ptr @sccp_users_copy_cb(ptr noundef returned writeonly captures(ret: address, provenance) initializes((0, 4), (24, 29), (32, 40)) %0, ptr noundef readonly captures(none) %1, i64 %2) #0 {
  %4 = load i32, ptr %1, align 8
  store i32 %4, ptr %0, align 8
  %5 = getelementptr inbounds nuw i8, ptr %1, i64 24
  %6 = load i32, ptr %5, align 8
  %7 = getelementptr inbounds nuw i8, ptr %0, i64 24
  store i32 %6, ptr %7, align 8
  %8 = getelementptr inbounds nuw i8, ptr %1, i64 28
  %9 = load i8, ptr %8, align 4, !range !6, !noundef !7
  %10 = getelementptr inbounds nuw i8, ptr %0, i64 28
  store i8 %9, ptr %10, align 4
  %11 = getelementptr inbounds nuw i8, ptr %1, i64 32
  %12 = load ptr, ptr %11, align 8
  %13 = getelementptr inbounds nuw i8, ptr %0, i64 32
  store ptr %12, ptr %13, align 8
  %14 = getelementptr inbounds nuw i8, ptr %1, i64 8
  %15 = load ptr, ptr %14, align 8
  %.not = icmp eq ptr %15, null
  br i1 %.not, label %19, label %16

16:                                               ; preds = %3
  %17 = tail call ptr @range_copy(ptr noundef null, ptr noundef nonnull %15)
  %18 = getelementptr inbounds nuw i8, ptr %0, i64 8
  store ptr %17, ptr %18, align 8
  br label %19

19:                                               ; preds = %16, %3
  %20 = getelementptr inbounds nuw i8, ptr %1, i64 16
  %21 = load ptr, ptr %20, align 8
  %.not18 = icmp eq ptr %21, null
  br i1 %.not18, label %25, label %22

22:                                               ; preds = %19
  %23 = tail call ptr @range_copy(ptr noundef null, ptr noundef nonnull %21)
  %24 = getelementptr inbounds nuw i8, ptr %0, i64 16
  store ptr %23, ptr %24, align 8
  br label %25

25:                                               ; preds = %22, %19
  ret ptr %0
}